target datalayout = "e-m:e-p270:32:32-p271:32:32-p272:64:64-i64:64-i128:128-f80:128-n8:16:32:64-S128"
target triple = "x86_64-pc-linux-gnu"

%"class.std::__cxx11::basic_string" = type { %"struct.std::__cxx11::basic_string<char>::_Alloc_hider", i64, %union.anon }
%"struct.std::__cxx11::basic_string<char>::_Alloc_hider" = type { ptr }
%union.anon = type { i64, [8 x i8] }

@_ZN7testing19FLAGS_gmock_verboseB5cxx11E = global %"class.std::__cxx11::basic_string" zeroinitializer, align 8
@_ZN7testing8internalL14kInfoVerbosityE = internal constant [5 x i8] c"info\00", align 1
@_ZN7testing8internalL15kErrorVerbosityE = internal constant [6 x i8] c"error\00", align 1

; Function Attrs: inlinehint mustprogress nounwind uwtable
define linkonce_odr noundef zeroext i1 @_ZSteqIcSt11char_traitsIcESaIcEEbRKNSt7__cxx1112basic_stringIT_T0_T1_EEPKS5_(ptr noundef nonnull align 8 dereferenceable(32) %0, ptr noundef %1) #10 comdat {
  %3 = alloca ptr, align 8
  %4 = alloca ptr, align 8
  store ptr %0, ptr %3, align 8, !tbaa !10
  store ptr %1, ptr %4, align 8, !tbaa !12
  %5 = load ptr, ptr %3, align 8, !tbaa !10
  %6 = load ptr, ptr %4, align 8, !tbaa !12
  %7 = call noundef i32 @_ZNKSt7__cxx1112basic_stringIcSt11char_traitsIcESaIcEE7compareEPKc(ptr noundef nonnull align 8 dereferenceable(32) %5, ptr noundef %6) #3
  %8 = icmp eq i32 %7, 0
  ret i1 %8
}

; Function Attrs: mustprogress uwtable
define noundef zeroext i1 @_ZN7testing8internal12LogIsVisibleENS0_11LogSeverityE(i32 noundef %0) #4 {
  %2 = alloca i1, align 1
  %3 = alloca i32, align 4
  store i32 %0, ptr %3, align 4, !tbaa !60
  %4 = call noundef zeroext i1 @_ZSteqIcSt11char_traitsIcESaIcEEbRKNSt7__cxx1112basic_stringIT_T0_T1_EEPKS5_(ptr noundef nonnull align 8 dereferenceable(32) @_ZN7testing19FLAGS_gmock_verboseB5cxx11E, ptr noundef @_ZN7testing8internalL14kInfoVerbosityE)
  br i1 %4, label %5, label %6

5:                                                ; preds = %1
  store i1 true, ptr %2, align 1
  br label %12

6:                                                ; preds = %1
  %7 = call noundef zeroext i1 @_ZSteqIcSt11char_traitsIcESaIcEEbRKNSt7__cxx1112basic_stringIT_T0_T1_EEPKS5_(ptr noundef nonnull align 8 dereferenceable(32) @_ZN7testing19FLAGS_gmock_verboseB5cxx11E, ptr noundef @_ZN7testing8internalL15kErrorVerbosityE)
  br i1 %7, label %8, label %9

8:                                                ; preds = %6
  store i1 false, ptr %2, align 1
  br label %12

9:                                                ; preds = %6
  %10 = load i32, ptr %3, align 4, !tbaa !60
  %11 = icmp eq i32 %10, 1
  store i1 %11, ptr %2, align 1
  br label %12

12:                                               ; preds = %9, %8, %5
  %13 = load i1, ptr %2, align 1
  ret i1 %13
}