; Function Attrs: mustprogress nounwind uwtable
define noundef zeroext i1 @_ZN7testing8internal12LogIsVisibleENS0_11LogSeverityE(i32 noundef %0) local_unnamed_addr #6 {
  %2 = tail call noundef i32 @_ZNKSt7__cxx1112basic_stringIcSt11char_traitsIcESaIcEE7compareEPKc(ptr noundef nonnull align 8 dereferenceable(32) @_ZN7testing19FLAGS_gmock_verboseB5cxx11E, ptr noundef nonnull @_ZN7testing8internalL14kInfoVerbosityE) #33
  %3 = icmp eq i32 %2, 0
  br i1 %3, label %8, label %4

4:                                                ; preds = %1
  %5 = tail call noundef i32 @_ZNKSt7__cxx1112basic_stringIcSt11char_traitsIcESaIcEE7compareEPKc(ptr noundef nonnull align 8 dereferenceable(32) @_ZN7testing19FLAGS_gmock_verboseB5cxx11E, ptr noundef nonnull @_ZN7testing8internalL15kErrorVerbosityE) #33
  %6 = icmp ne i32 %5, 0
  %7 = icmp eq i32 %0, 1
  %spec.select = and i1 %7, %6
  br label %8

8:                                                ; preds = %4, %1
  %.0 = phi i1 [ true, %1 ], [ %spec.select, %4 ]
  ret i1 %.0
}